target datalayout = "e-m:e-p270:32:32-p271:32:32-p272:64:64-i64:64-i128:128-f80:128-n8:16:32:64-S128"
target triple = "x86_64-pc-linux-gnu"

%struct.formatted_gps_ins_fields = type { i32, i32, i32, i32, i32, i32, i32, i32, i32, i32, i32, i32, i32 }

; Function Attrs: null_pointer_is_valid sspstrong uwtable
define internal void @dissect_context_formatted_gps_ins(ptr noundef %0, ptr noundef %1, ptr noundef %2, i32 noundef %3) #0 {
  %5 = alloca ptr, align 8
  %6 = alloca ptr, align 8
  %7 = alloca ptr, align 8
  %8 = alloca i32, align 4
  %9 = alloca i8, align 1
  store ptr %0, ptr %5, align 8
  store ptr %1, ptr %6, align 8
  store ptr %2, ptr %7, align 8
  store i32 %3, ptr %8, align 4
  %10 = load ptr, ptr %6, align 8
  %11 = load ptr, ptr %5, align 8
  %12 = getelementptr inbounds nuw %struct.formatted_gps_ins_fields, ptr %11, i32 0, i32 0
  %13 = load i32, ptr %12, align 4
  %14 = load ptr, ptr %7, align 8
  %15 = load i32, ptr %8, align 4
  %16 = call ptr @proto_tree_add_item(ptr noundef %10, i32 noundef %13, ptr noundef %14, i32 noundef %15, i32 noundef 1, i32 noundef 0)
  %17 = load ptr, ptr %6, align 8
  %18 = load ptr, ptr %5, align 8
  %19 = getelementptr inbounds nuw %struct.formatted_gps_ins_fields, ptr %18, i32 0, i32 1
  %20 = load i32, ptr %19, align 4
  %21 = load ptr, ptr %7, align 8
  %22 = load i32, ptr %8, align 4
  %23 = call ptr @proto_tree_add_item(ptr noundef %17, i32 noundef %20, ptr noundef %21, i32 noundef %22, i32 noundef 1, i32 noundef 0)
  %24 = load ptr, ptr %6, align 8
  %25 = load ptr, ptr %5, align 8
  %26 = getelementptr inbounds nuw %struct.formatted_gps_ins_fields, ptr %25, i32 0, i32 2
  %27 = load i32, ptr %26, align 4
  %28 = load ptr, ptr %7, align 8
  %29 = load i32, ptr %8, align 4
  %30 = add i32 %29, 1
  %31 = call ptr @proto_tree_add_item(ptr noundef %24, i32 noundef %27, ptr noundef %28, i32 noundef %30, i32 noundef 3, i32 noundef 0)
  %32 = load ptr, ptr %6, align 8
  %33 = load ptr, ptr %5, align 8
  %34 = getelementptr inbounds nuw %struct.formatted_gps_ins_fields, ptr %33, i32 0, i32 3
  %35 = load i32, ptr %34, align 4
  %36 = load ptr, ptr %7, align 8
  %37 = load i32, ptr %8, align 4
  %38 = add i32 %37, 4
  %39 = call ptr @proto_tree_add_item(ptr noundef %32, i32 noundef %35, ptr noundef %36, i32 noundef %38, i32 noundef 4, i32 noundef 0)
  call void @llvm.lifetime.start.p0(i64 1, ptr %9) #7
  %40 = load ptr, ptr %7, align 8
  %41 = load i32, ptr %8, align 4
  %42 = call zeroext i8 @tvb_get_uint8(ptr noundef %40, i32 noundef %41)
  %43 = zext i8 %42 to i32
  %44 = and i32 %43, 3
  %45 = trunc i32 %44 to i8
  store i8 %45, ptr %9, align 1
  %46 = load i8, ptr %9, align 1
  %47 = zext i8 %46 to i32
  %48 = icmp eq i32 %47, 1
  br i1 %48, label %53, label %49

49:                                               ; preds = %4
  %50 = load i8, ptr %9, align 1
  %51 = zext i8 %50 to i32
  %52 = icmp eq i32 %51, 3
  br i1 %52, label %53, label %62

53:                                               ; preds = %49, %4
  %54 = load ptr, ptr %6, align 8
  %55 = load ptr, ptr %5, align 8
  %56 = getelementptr inbounds nuw %struct.formatted_gps_ins_fields, ptr %55, i32 0, i32 5
  %57 = load i32, ptr %56, align 4
  %58 = load ptr, ptr %7, align 8
  %59 = load i32, ptr %8, align 4
  %60 = add i32 %59, 8
  %61 = call ptr @proto_tree_add_item(ptr noundef %54, i32 noundef %57, ptr noundef %58, i32 noundef %60, i32 noundef 8, i32 noundef 0)
  br label %76

62:                                               ; preds = %49
  %63 = load i8, ptr %9, align 1
  %64 = zext i8 %63 to i32
  %65 = icmp eq i32 %64, 2
  br i1 %65, label %66, label %75

66:                                               ; preds = %62
  %67 = load ptr, ptr %6, align 8
  %68 = load ptr, ptr %5, align 8
  %69 = getelementptr inbounds nuw %struct.formatted_gps_ins_fields, ptr %68, i32 0, i32 4
  %70 = load i32, ptr %69, align 4
  %71 = load ptr, ptr %7, align 8
  %72 = load i32, ptr %8, align 4
  %73 = add i32 %72, 8
  %74 = call ptr @proto_tree_add_item(ptr noundef %67, i32 noundef %70, ptr noundef %71, i32 noundef %73, i32 noundef 8, i32 noundef 0)
  br label %75

75:                                               ; preds = %66, %62
  br label %76

76:                                               ; preds = %75, %53
  %77 = load ptr, ptr %6, align 8
  %78 = load ptr, ptr %5, align 8
  %79 = getelementptr inbounds nuw %struct.formatted_gps_ins_fields, ptr %78, i32 0, i32 6
  %80 = load i32, ptr %79, align 4
  %81 = load ptr, ptr %7, align 8
  %82 = load i32, ptr %8, align 4
  %83 = add i32 %82, 16
  %84 = call ptr @proto_tree_add_item(ptr noundef %77, i32 noundef %80, ptr noundef %81, i32 noundef %83, i32 noundef 4, i32 noundef 0)
  %85 = load ptr, ptr %6, align 8
  %86 = load ptr, ptr %5, align 8
  %87 = getelementptr inbounds nuw %struct.formatted_gps_ins_fields, ptr %86, i32 0, i32 7
  %88 = load i32, ptr %87, align 4
  %89 = load ptr, ptr %7, align 8
  %90 = load i32, ptr %8, align 4
  %91 = add i32 %90, 20
  %92 = call ptr @proto_tree_add_item(ptr noundef %85, i32 noundef %88, ptr noundef %89, i32 noundef %91, i32 noundef 4, i32 noundef 0)
  %93 = load ptr, ptr %6, align 8
  %94 = load ptr, ptr %5, align 8
  %95 = getelementptr inbounds nuw %struct.formatted_gps_ins_fields, ptr %94, i32 0, i32 8
  %96 = load i32, ptr %95, align 4
  %97 = load ptr, ptr %7, align 8
  %98 = load i32, ptr %8, align 4
  %99 = add i32 %98, 24
  %100 = call ptr @proto_tree_add_item(ptr noundef %93, i32 noundef %96, ptr noundef %97, i32 noundef %99, i32 noundef 4, i32 noundef 0)
  %101 = load ptr, ptr %6, align 8
  %102 = load ptr, ptr %5, align 8
  %103 = getelementptr inbounds nuw %struct.formatted_gps_ins_fields, ptr %102, i32 0, i32 9
  %104 = load i32, ptr %103, align 4
  %105 = load ptr, ptr %7, align 8
  %106 = load i32, ptr %8, align 4
  %107 = add i32 %106, 28
  %108 = call ptr @proto_tree_add_item(ptr noundef %101, i32 noundef %104, ptr noundef %105, i32 noundef %107, i32 noundef 4, i32 noundef 0)
  %109 = load ptr, ptr %6, align 8
  %110 = load ptr, ptr %5, align 8
  %111 = getelementptr inbounds nuw %struct.formatted_gps_ins_fields, ptr %110, i32 0, i32 10
  %112 = load i32, ptr %111, align 4
  %113 = load ptr, ptr %7, align 8
  %114 = load i32, ptr %8, align 4
  %115 = add i32 %114, 32
  %116 = call ptr @proto_tree_add_item(ptr noundef %109, i32 noundef %112, ptr noundef %113, i32 noundef %115, i32 noundef 4, i32 noundef 0)
  %117 = load ptr, ptr %6, align 8
  %118 = load ptr, ptr %5, align 8
  %119 = getelementptr inbounds nuw %struct.formatted_gps_ins_fields, ptr %118, i32 0, i32 11
  %120 = load i32, ptr %119, align 4
  %121 = load ptr, ptr %7, align 8
  %122 = load i32, ptr %8, align 4
  %123 = add i32 %122, 36
  %124 = call ptr @proto_tree_add_item(ptr noundef %117, i32 noundef %120, ptr noundef %121, i32 noundef %123, i32 noundef 4, i32 noundef 0)
  %125 = load ptr, ptr %6, align 8
  %126 = load ptr, ptr %5, align 8
  %127 = getelementptr inbounds nuw %struct.formatted_gps_ins_fields, ptr %126, i32 0, i32 12
  %128 = load i32, ptr %127, align 4
  %129 = load ptr, ptr %7, align 8
  %130 = load i32, ptr %8, align 4
  %131 = add i32 %130, 40
  %132 = call ptr @proto_tree_add_item(ptr noundef %125, i32 noundef %128, ptr noundef %129, i32 noundef %131, i32 noundef 4, i32 noundef 0)
  call void @llvm.lifetime.end.p0(i64 1, ptr %9) #7
  ret void
}