; Function Attrs: null_pointer_is_valid sspstrong uwtable
define internal fastcc void @dissect_context_formatted_gps_ins(ptr noundef readonly captures(none) %0, ptr noundef %1, ptr noundef %2, i32 noundef %3) unnamed_addr #0 {
  %5 = load i32, ptr %0, align 4
  %6 = tail call ptr @proto_tree_add_item(ptr noundef %1, i32 noundef %5, ptr noundef %2, i32 noundef %3, i32 noundef 1, i32 noundef 0)
  %7 = getelementptr inbounds nuw i8, ptr %0, i64 4
  %8 = load i32, ptr %7, align 4
  %9 = tail call ptr @proto_tree_add_item(ptr noundef %1, i32 noundef %8, ptr noundef %2, i32 noundef %3, i32 noundef 1, i32 noundef 0)
  %10 = getelementptr inbounds nuw i8, ptr %0, i64 8
  %11 = load i32, ptr %10, align 4
  %12 = add i32 %3, 1
  %13 = tail call ptr @proto_tree_add_item(ptr noundef %1, i32 noundef %11, ptr noundef %2, i32 noundef %12, i32 noundef 3, i32 noundef 0)
  %14 = getelementptr inbounds nuw i8, ptr %0, i64 12
  %15 = load i32, ptr %14, align 4
  %16 = add i32 %3, 4
  %17 = tail call ptr @proto_tree_add_item(ptr noundef %1, i32 noundef %15, ptr noundef %2, i32 noundef %16, i32 noundef 4, i32 noundef 0)
  %18 = tail call zeroext i8 @tvb_get_uint8(ptr noundef %2, i32 noundef %3)
  %19 = and i8 %18, 1
  %or.cond.not = icmp eq i8 %19, 0
  br i1 %or.cond.not, label %20, label %.sink.split

20:                                               ; preds = %4
  %21 = and i8 %18, 2
  %.not = icmp eq i8 %21, 0
  br i1 %.not, label %26, label %.sink.split

.sink.split:                                      ; preds = %20, %4
  %.sink = phi i64 [ 20, %4 ], [ 16, %20 ]
  %22 = getelementptr inbounds nuw i8, ptr %0, i64 %.sink
  %23 = load i32, ptr %22, align 4
  %24 = add i32 %3, 8
  %25 = tail call ptr @proto_tree_add_item(ptr noundef %1, i32 noundef %23, ptr noundef %2, i32 noundef %24, i32 noundef 8, i32 noundef 0)
  br label %26

26:                                               ; preds = %.sink.split, %20
  %27 = getelementptr inbounds nuw i8, ptr %0, i64 24
  %28 = load i32, ptr %27, align 4
  %29 = add i32 %3, 16
  %30 = tail call ptr @proto_tree_add_item(ptr noundef %1, i32 noundef %28, ptr noundef %2, i32 noundef %29, i32 noundef 4, i32 noundef 0)
  %31 = getelementptr inbounds nuw i8, ptr %0, i64 28
  %32 = load i32, ptr %31, align 4
  %33 = add i32 %3, 20
  %34 = tail call ptr @proto_tree_add_item(ptr noundef %1, i32 noundef %32, ptr noundef %2, i32 noundef %33, i32 noundef 4, i32 noundef 0)
  %35 = getelementptr inbounds nuw i8, ptr %0, i64 32
  %36 = load i32, ptr %35, align 4
  %37 = add i32 %3, 24
  %38 = tail call ptr @proto_tree_add_item(ptr noundef %1, i32 noundef %36, ptr noundef %2, i32 noundef %37, i32 noundef 4, i32 noundef 0)
  %39 = getelementptr inbounds nuw i8, ptr %0, i64 36
  %40 = load i32, ptr %39, align 4
  %41 = add i32 %3, 28
  %42 = tail call ptr @proto_tree_add_item(ptr noundef %1, i32 noundef %40, ptr noundef %2, i32 noundef %41, i32 noundef 4, i32 noundef 0)
  %43 = getelementptr inbounds nuw i8, ptr %0, i64 40
  %44 = load i32, ptr %43, align 4
  %45 = add i32 %3, 32
  %46 = tail call ptr @proto_tree_add_item(ptr noundef %1, i32 noundef %44, ptr noundef %2, i32 noundef %45, i32 noundef 4, i32 noundef 0)
  %47 = getelementptr inbounds nuw i8, ptr %0, i64 44
  %48 = load i32, ptr %47, align 4
  %49 = add i32 %3, 36
  %50 = tail call ptr @proto_tree_add_item(ptr noundef %1, i32 noundef %48, ptr noundef %2, i32 noundef %49, i32 noundef 4, i32 noundef 0)
  %51 = getelementptr inbounds nuw i8, ptr %0, i64 48
  %52 = load i32, ptr %51, align 4
  %53 = add i32 %3, 40
  %54 = tail call ptr @proto_tree_add_item(ptr noundef %1, i32 noundef %52, ptr noundef %2, i32 noundef %53, i32 noundef 4, i32 noundef 0)
  ret void
}